(dp1
S'dirs'
p2
(dp3
S''
ccopy_reg
_reconstructor
p4
(cpida.core.indexer
FileInfo
p5
c__builtin__
object
p6
NtRp7
(dp8
S'basename'
p9
S''
sS'doctype'
p10
NsS'ext'
p11
S''
sS'is_file'
p12
I00
sS'mtime'
p13
F1306732073.2022641
sS'is_dir'
p14
I01
sS'dirname'
p15
S''
sS'children'
p16
(dp17
S'.pida-metadata'
p18
g4
(g5
g6
NtRp19
(dp20
g9
g18
sg10
Nsg11
S''
sg12
I00
sg13
F1306729809.3532283
sg14
I01
sg15
S''
sg16
(dp21
S'project.json'
p22
g4
(g5
g6
NtRp23
(dp24
g9
g22
sg10
S'Javascript'
p25
sg11
S'.json'
p26
sg12
I01
sg13
F1306729809.2162304
sg14
I00
sg15
S'.pida-metadata'
p27
sg16
(dp28
sS'relpath'
p29
S'.pida-metadata/project.json'
p30
sbsS'FILECACHE'
p31
g4
(g5
g6
NtRp32
(dp33
g9
g31
sg10
Nsg11
S''
sg12
I01
sg13
F1306729809.3532283
sg14
I00
sg15
S'.pida-metadata'
p34
sg16
(dp35
sg29
S'.pida-metadata/FILECACHE'
p36
sbssg29
g18
sbsS'LICENSE'
p37
g4
(g5
g6
NtRp38
(dp39
g9
g37
sg10
Nsg11
S''
sg12
I01
sg13
F1306731445.2531209
sg14
I00
sg15
S''
sg16
(dp40
sg29
g37
sbsS'GTG'
p41
g4
(g5
g6
NtRp42
(dp43
g9
g41
sg10
Nsg11
S''
sg12
I00
sg13
F1306731352.2971301
sg14
I01
sg15
S''
sg16
(dp44
S'helloworld2.gtg-plugin'
p45
g4
(g5
g6
NtRp46
(dp47
g9
g45
sg10
Nsg11
S'.gtg-plugin'
p48
sg12
I01
sg13
F1306477433
sg14
I00
sg15
S'GTG'
p49
sg16
(dp50
sg29
S'GTG/helloworld2.gtg-plugin'
p51
sbsS'plugins'
p52
g4
(g5
g6
NtRp53
(dp54
g9
g52
sg10
Nsg11
S''
sg12
I00
sg13
F1306731292.2887809
sg14
I01
sg15
S'GTG'
p55
sg16
(dp56
S'reminder'
p57
g4
(g5
g6
NtRp58
(dp59
g9
g57
sg10
Nsg11
S''
sg12
I00
sg13
F1306732079.9951897
sg14
I01
sg15
S'GTG/plugins'
p60
sg16
(dp61
S'reminder.py'
p62
g4
(g5
g6
NtRp63
(dp64
g9
g62
sg10
S'Python'
p65
sg11
S'.py'
p66
sg12
I01
sg13
F1306708111
sg14
I00
sg15
S'GTG/plugins/reminder'
p67
sg16
(dp68
sg29
S'GTG/plugins/reminder/reminder.py'
p69
sbsVnotify.py
p70
g4
(g5
g6
NtRp71
(dp72
g9
g70
sg10
S'Python'
p73
sg11
V.py
p74
sg12
I01
sg13
F1306824325.4376562
sg14
I00
sg15
VGTG/plugins/reminder
p75
sg16
(dp76
sg29
VGTG/plugins/reminder/notify.py
p77
sbsS'reminder.ui'
p78
g4
(g5
g6
NtRp79
(dp80
g9
g78
sg10
Nsg11
S'.ui'
p81
sg12
I01
sg13
F1306689938
sg14
I00
sg15
S'GTG/plugins/reminder'
p82
sg16
(dp83
sg29
S'GTG/plugins/reminder/reminder.ui'
p84
sbsS'__init__.py'
p85
g4
(g5
g6
NtRp86
(dp87
g9
g85
sg10
S'Python'
p88
sg11
S'.py'
p89
sg12
I01
sg13
F1306507553
sg14
I00
sg15
S'GTG/plugins/reminder'
p90
sg16
(dp91
sg29
S'GTG/plugins/reminder/__init__.py'
p92
sbsS'.reminder.py.swp'
p93
g4
(g5
g6
NtRp94
(dp95
g9
g93
sg10
Nsg11
S'.swp'
p96
sg12
I01
sg13
F1306732089.1320894
sg14
I00
sg15
S'GTG/plugins/reminder'
p97
sg16
(dp98
sg29
S'GTG/plugins/reminder/.reminder.py.swp'
p99
sbssg29
S'GTG/plugins/reminder'
p100
sbsVreminder.gtg-plugin
p101
g4
(g5
g6
NtRp102
(dp103
g9
g101
sg10
Nsg11
V.gtg-plugin
p104
sg12
I01
sg13
F1306836708.9227655
sg14
I00
sg15
VGTG/plugins
p105
sg16
(dp106
sg29
VGTG/plugins/reminder.gtg-plugin
p107
sbssg29
S'GTG/plugins'
p108
sbssg29
g41
sbsS'doc'
p109
g4
(g5
g6
NtRp110
(dp111
g9
g109
sg10
Nsg11
S''
sg12
I00
sg13
F1306731260.7061231
sg14
I01
sg15
S''
sg16
(dp112
sg29
g109
sbsS'CHANGELOG'
p113
g4
(g5
g6
NtRp114
(dp115
g9
g113
sg10
Nsg11
S''
sg12
I01
sg13
F1306731429.7322896
sg14
I00
sg15
S''
sg16
(dp116
sg29
g113
sbsS'.Reminder.swp'
p117
g4
(g5
g6
NtRp118
(dp119
g9
g117
sg10
Nsg11
S'.swp'
p120
sg12
I01
sg13
F1306729897.6302042
sg14
I00
sg15
S''
sg16
(dp121
sg29
g117
sbsS'.setup.py.swp'
p122
g4
(g5
g6
NtRp123
(dp124
g9
g122
sg10
Nsg11
S'.swp'
p125
sg12
I01
sg13
F1306732089.1320894
sg14
I00
sg15
S''
sg16
(dp126
sg29
g122
sbsS'AUTHORS'
p127
g4
(g5
g6
NtRp128
(dp129
g9
g127
sg10
Nsg11
S''
sg12
I01
sg13
F1306731420.388391
sg14
I00
sg15
S''
sg16
(dp130
sg29
g127
sbsS'README'
p131
g4
(g5
g6
NtRp132
(dp133
g9
g131
sg10
Nsg11
S''
sg12
I01
sg13
F1306731531.0021884
sg14
I00
sg15
S''
sg16
(dp134
sg29
g131
sbsS'setup.py'
p135
g4
(g5
g6
NtRp136
(dp137
g9
g135
sg10
S'Python'
p138
sg11
S'.py'
p139
sg12
I01
sg13
F1306731541.6750722
sg14
I00
sg15
S''
sg16
(dp140
sg29
g135
sbsS'po'
p141
g4
(g5
g6
NtRp142
(dp143
g9
g141
sg10
Nsg11
S''
sg12
I00
sg13
F1306731462.2309363
sg14
I01
sg15
S''
sg16
(dp144
sg29
g141
sbssg29
S''
sbsg18
g19
sg41
g42
sg109
g110
sg100
g58
sg108
g53
sg141
g142
ssS'paths'
p145
(dp146
S''
g7
sg30
g23
sg37
g38
sg100
g58
sg51
g46
sg36
g32
sg41
g42
sg122
g123
sg99
g94
sg131
g132
sg135
g136
sg141
g142
sg18
g19
sg113
g114
sg127
g128
sg117
g118
sg108
g53
sg77
g71
sg69
g63
sg92
g86
sg109
g110
sg84
g79
sg107
g102
ssS'filenames'
p147
ccollections
defaultdict
p148
(c__builtin__
list
p149
tRp150
g31
(lp151
g32
asg37
(lp152
g38
asg113
(lp153
g114
asg22
(lp154
g23
asg45
(lp155
g46
asg117
(lp156
g118
asg85
(lp157
g86
asg122
(lp158
g123
asg78
(lp159
g79
asg127
(lp160
g128
asg131
(lp161
g132
asg135
(lp162
g136
asg62
(lp163
g63
asg93
(lp164
g94
assS'files'
p165
(dp166
g51
g46
sg92
g86
sg84
g79
sg37
g38
sg113
g114
sg99
g94
sg30
g23
sg117
g118
sg122
g123
sg36
g32
sg127
g128
sg131
g132
sg135
g136
sg69
g63
ssS'dirnames'
p167
g148
(g149
tRp168
S''
(lp169
g7
asg18
(lp170
g19
asg41
(lp171
g42
asg109
(lp172
g110
asg52
(lp173
g53
asg57
(lp174
g58
asg141
(lp175
g142
ass.